; Function Attrs: nounwind sspstrong uwtable
define dso_local void @tcg_gen_gvec_mov(i32 noundef %0, i32 noundef %1, i32 noundef %2, i32 noundef %3, i32 noundef %4) local_unnamed_addr #2 {
  %.not = icmp eq i32 %1, %2
  br i1 %.not, label %7, label %6

6:                                                ; preds = %5
  tail call void @tcg_gen_gvec_2(i32 noundef %1, i32 noundef %2, i32 noundef %3, i32 noundef %4, ptr noundef nonnull @tcg_gen_gvec_mov.g)
  br label %23

7:                                                ; preds = %5
  switch i32 %3, label %10 [
    i32 8, label %8
    i32 16, label %8
    i32 32, label %8
  ]

8:                                                ; preds = %7, %7, %7
  %9 = icmp ule i32 %3, %4
  br label %check_size_align.exit

10:                                               ; preds = %7
  %11 = icmp eq i32 %3, %4
  br label %check_size_align.exit

check_size_align.exit:                            ; preds = %8, %10
  %.sink.i = phi i1 [ %9, %8 ], [ %11, %10 ]
  tail call void @llvm.assume(i1 %.sink.i)
  %12 = icmp ult i32 %4, 2049
  tail call void @llvm.assume(i1 %12)
  %13 = icmp samesign ugt i32 %4, 15
  %14 = select i1 %13, i32 15, i32 7
  %15 = and i32 %14, %4
  %16 = icmp eq i32 %15, 0
  tail call void @llvm.assume(i1 %16)
  %17 = and i32 %14, %1
  %18 = icmp eq i32 %17, 0
  tail call void @llvm.assume(i1 %18)
  %19 = icmp ult i32 %3, %4
  br i1 %19, label %20, label %23

20:                                               ; preds = %check_size_align.exit
  %21 = add i32 %3, %1
  %22 = sub nuw nsw i32 %4, %3
  tail call fastcc void @do_dup(i32 noundef 0, i32 noundef %21, i32 noundef %22, i32 noundef %22, ptr noundef null, ptr noundef null, i64 noundef 0)
  br label %23

23:                                               ; preds = %check_size_align.exit, %20, %6
  ret void
}